target datalayout = "e-m:e-p270:32:32-p271:32:32-p272:64:64-i64:64-i128:128-f80:128-n8:16:32:64-S128"
target triple = "x86_64-pc-linux-gnu"

%struct.AVFilterContext = type { ptr, ptr, ptr, ptr, ptr, i32, ptr, ptr, i32, ptr, ptr, i32, i32, ptr, ptr, ptr, ptr, i32, ptr, i32, i32 }
%struct.rgbvec = type { float, float, float }
%struct.LUT1DContext = type { ptr, ptr, i32, %struct.rgbvec, [4 x i8], i32, [3 x [65536 x float]], i32, ptr }

; Function Attrs: nounwind uwtable
define internal void @set_identity_matrix_1d(ptr noundef %0, i32 noundef %1) #1 {
  %3 = alloca ptr, align 8
  %4 = alloca i32, align 4
  %5 = alloca float, align 4
  %6 = alloca i32, align 4
  store ptr %0, ptr %3, align 8, !tbaa !48
  store i32 %1, ptr %4, align 4, !tbaa !39
  call void @llvm.lifetime.start.p0(i64 4, ptr %5) #16
  %7 = load i32, ptr %4, align 4, !tbaa !39
  %8 = sub nsw i32 %7, 1
  %9 = sitofp i32 %8 to double
  %10 = fdiv nsz double 1.000000e+00, %9
  %11 = fptrunc nsz double %10 to float
  store float %11, ptr %5, align 4, !tbaa !91
  call void @llvm.lifetime.start.p0(i64 4, ptr %6) #16
  %12 = load i32, ptr %4, align 4, !tbaa !39
  %13 = load ptr, ptr %3, align 8, !tbaa !48
  %14 = getelementptr inbounds nuw %struct.LUT1DContext, ptr %13, i32 0, i32 7
  store i32 %12, ptr %14, align 8, !tbaa !55
  store i32 0, ptr %6, align 4, !tbaa !39
  br label %15

15:                                               ; preds = %50, %2
  %16 = load i32, ptr %6, align 4, !tbaa !39
  %17 = load i32, ptr %4, align 4, !tbaa !39
  %18 = icmp slt i32 %16, %17
  br i1 %18, label %19, label %53

19:                                               ; preds = %15
  %20 = load i32, ptr %6, align 4, !tbaa !39
  %21 = sitofp i32 %20 to float
  %22 = load float, ptr %5, align 4, !tbaa !91
  %23 = fmul nsz float %21, %22
  %24 = load ptr, ptr %3, align 8, !tbaa !48
  %25 = getelementptr inbounds nuw %struct.LUT1DContext, ptr %24, i32 0, i32 6
  %26 = getelementptr inbounds [3 x [65536 x float]], ptr %25, i64 0, i64 0
  %27 = load i32, ptr %6, align 4, !tbaa !39
  %28 = sext i32 %27 to i64
  %29 = getelementptr inbounds [65536 x float], ptr %26, i64 0, i64 %28
  store float %23, ptr %29, align 4, !tbaa !91
  %30 = load i32, ptr %6, align 4, !tbaa !39
  %31 = sitofp i32 %30 to float
  %32 = load float, ptr %5, align 4, !tbaa !91
  %33 = fmul nsz float %31, %32
  %34 = load ptr, ptr %3, align 8, !tbaa !48
  %35 = getelementptr inbounds nuw %struct.LUT1DContext, ptr %34, i32 0, i32 6
  %36 = getelementptr inbounds [3 x [65536 x float]], ptr %35, i64 0, i64 1
  %37 = load i32, ptr %6, align 4, !tbaa !39
  %38 = sext i32 %37 to i64
  %39 = getelementptr inbounds [65536 x float], ptr %36, i64 0, i64 %38
  store float %33, ptr %39, align 4, !tbaa !91
  %40 = load i32, ptr %6, align 4, !tbaa !39
  %41 = sitofp i32 %40 to float
  %42 = load float, ptr %5, align 4, !tbaa !91
  %43 = fmul nsz float %41, %42
  %44 = load ptr, ptr %3, align 8, !tbaa !48
  %45 = getelementptr inbounds nuw %struct.LUT1DContext, ptr %44, i32 0, i32 6
  %46 = getelementptr inbounds [3 x [65536 x float]], ptr %45, i64 0, i64 2
  %47 = load i32, ptr %6, align 4, !tbaa !39
  %48 = sext i32 %47 to i64
  %49 = getelementptr inbounds [65536 x float], ptr %46, i64 0, i64 %48
  store float %43, ptr %49, align 4, !tbaa !91
  br label %50

50:                                               ; preds = %19
  %51 = load i32, ptr %6, align 4, !tbaa !39
  %52 = add nsw i32 %51, 1
  store i32 %52, ptr %6, align 4, !tbaa !39
  br label %15, !llvm.loop !384

53:                                               ; preds = %15
  call void @llvm.lifetime.end.p0(i64 4, ptr %6) #16
  call void @llvm.lifetime.end.p0(i64 4, ptr %5) #16
  ret void
}

; Function Attrs: nounwind uwtable
define internal i32 @lut1d_process_command(ptr noundef %0, ptr noundef %1, ptr noundef %2, ptr noundef %3, i32 noundef %4, i32 noundef %5) #1 {
  %7 = alloca i32, align 4
  %8 = alloca ptr, align 8
  %9 = alloca ptr, align 8
  %10 = alloca ptr, align 8
  %11 = alloca ptr, align 8
  %12 = alloca i32, align 4
  %13 = alloca i32, align 4
  %14 = alloca ptr, align 8
  %15 = alloca i32, align 4
  %16 = alloca i32, align 4
  store ptr %0, ptr %8, align 8, !tbaa !4
  store ptr %1, ptr %9, align 8, !tbaa !40
  store ptr %2, ptr %10, align 8, !tbaa !40
  store ptr %3, ptr %11, align 8, !tbaa !40
  store i32 %4, ptr %12, align 4, !tbaa !39
  store i32 %5, ptr %13, align 4, !tbaa !39
  call void @llvm.lifetime.start.p0(i64 8, ptr %14) #16
  %17 = load ptr, ptr %8, align 8, !tbaa !4
  %18 = getelementptr inbounds nuw %struct.AVFilterContext, ptr %17, i32 0, i32 9
  %19 = load ptr, ptr %18, align 8, !tbaa !9
  store ptr %19, ptr %14, align 8, !tbaa !48
  call void @llvm.lifetime.start.p0(i64 4, ptr %15) #16
  %20 = load ptr, ptr %8, align 8, !tbaa !4
  %21 = load ptr, ptr %9, align 8, !tbaa !40
  %22 = load ptr, ptr %10, align 8, !tbaa !40
  %23 = load ptr, ptr %11, align 8, !tbaa !40
  %24 = load i32, ptr %12, align 4, !tbaa !39
  %25 = load i32, ptr %13, align 4, !tbaa !39
  %26 = call i32 @ff_filter_process_command(ptr noundef %20, ptr noundef %21, ptr noundef %22, ptr noundef %23, i32 noundef %24, i32 noundef %25)
  store i32 %26, ptr %15, align 4, !tbaa !39
  %27 = load i32, ptr %15, align 4, !tbaa !39
  %28 = icmp slt i32 %27, 0
  br i1 %28, label %29, label %31

29:                                               ; preds = %6
  %30 = load i32, ptr %15, align 4, !tbaa !39
  store i32 %30, ptr %7, align 4
  store i32 1, ptr %16, align 4
  br label %46

31:                                               ; preds = %6
  %32 = load ptr, ptr %8, align 8, !tbaa !4
  %33 = call i32 @lut1d_init(ptr noundef %32) #19
  store i32 %33, ptr %15, align 4, !tbaa !39
  %34 = load i32, ptr %15, align 4, !tbaa !39
  %35 = icmp slt i32 %34, 0
  br i1 %35, label %36, label %39

36:                                               ; preds = %31
  %37 = load ptr, ptr %14, align 8, !tbaa !48
  call void @set_identity_matrix_1d(ptr noundef %37, i32 noundef 32)
  %38 = load i32, ptr %15, align 4, !tbaa !39
  store i32 %38, ptr %7, align 4
  store i32 1, ptr %16, align 4
  br label %46

39:                                               ; preds = %31
  %40 = load ptr, ptr %8, align 8, !tbaa !4
  %41 = getelementptr inbounds nuw %struct.AVFilterContext, ptr %40, i32 0, i32 4
  %42 = load ptr, ptr %41, align 8, !tbaa !44
  %43 = getelementptr inbounds ptr, ptr %42, i64 0
  %44 = load ptr, ptr %43, align 8, !tbaa !45
  %45 = call i32 @config_input_1d(ptr noundef %44)
  store i32 %45, ptr %7, align 4
  store i32 1, ptr %16, align 4
  br label %46

46:                                               ; preds = %39, %36, %29
  call void @llvm.lifetime.end.p0(i64 4, ptr %15) #16
  call void @llvm.lifetime.end.p0(i64 8, ptr %14) #16
  %47 = load i32, ptr %7, align 4
  ret i32 %47
}