; Function Attrs: nounwind uwtable
define internal range(i32 -2147483648, 1) i32 @lut1d_process_command(ptr noundef %0, ptr noundef %1, ptr noundef %2, ptr noundef %3, i32 noundef %4, i32 noundef %5) #1 {
  %7 = getelementptr inbounds nuw i8, ptr %0, i64 72
  %8 = load ptr, ptr %7, align 8, !tbaa !4
  %9 = tail call i32 @ff_filter_process_command(ptr noundef %0, ptr noundef %1, ptr noundef %2, ptr noundef %3, i32 noundef %4, i32 noundef %5) #21
  %10 = icmp slt i32 %9, 0
  br i1 %10, label %set_identity_matrix_1d.exit, label %11

11:                                               ; preds = %6
  %12 = tail call i32 @lut1d_init(ptr noundef nonnull %0) #24
  %13 = icmp slt i32 %12, 0
  br i1 %13, label %14, label %26

14:                                               ; preds = %11
  %15 = getelementptr inbounds nuw i8, ptr %8, i64 786472
  store i32 32, ptr %15, align 8, !tbaa !86
  %16 = getelementptr inbounds nuw i8, ptr %8, i64 40
  %17 = getelementptr inbounds nuw i8, ptr %8, i64 262184
  %18 = getelementptr inbounds nuw i8, ptr %8, i64 524328
  br label %19

19:                                               ; preds = %19, %14
  %indvars.iv.i = phi i64 [ 0, %14 ], [ %indvars.iv.next.i, %19 ]
  %20 = trunc nuw nsw i64 %indvars.iv.i to i32
  %21 = uitofp nneg i32 %20 to float
  %22 = fmul nsz float %21, 0x3FA0842100000000
  %23 = getelementptr inbounds nuw [65536 x float], ptr %16, i64 0, i64 %indvars.iv.i
  store float %22, ptr %23, align 4, !tbaa !62
  %24 = getelementptr inbounds nuw [65536 x float], ptr %17, i64 0, i64 %indvars.iv.i
  store float %22, ptr %24, align 4, !tbaa !62
  %25 = getelementptr inbounds nuw [65536 x float], ptr %18, i64 0, i64 %indvars.iv.i
  store float %22, ptr %25, align 4, !tbaa !62
  %indvars.iv.next.i = add nuw nsw i64 %indvars.iv.i, 1
  %exitcond.not.i = icmp eq i64 %indvars.iv.next.i, 32
  br i1 %exitcond.not.i, label %set_identity_matrix_1d.exit, label %19, !llvm.loop !87

26:                                               ; preds = %11
  %27 = getelementptr inbounds nuw i8, ptr %0, i64 32
  %28 = load ptr, ptr %27, align 8, !tbaa !77
  %29 = load ptr, ptr %28, align 8, !tbaa !78
  %30 = tail call i32 @config_input_1d(ptr noundef %29)
  br label %set_identity_matrix_1d.exit

set_identity_matrix_1d.exit:                      ; preds = %19, %6, %26
  %.0 = phi i32 [ 0, %26 ], [ %9, %6 ], [ %12, %19 ]
  ret i32 %.0
}